; Function Attrs: nounwind uwtable
define hidden range(i32 0, 2) i32 @timelib_get_time_zone_offset_info(i64 noundef %0, ptr noundef %1, ptr noundef writeonly captures(address_is_null) %2, ptr noundef writeonly captures(address_is_null) %3, ptr noundef writeonly captures(address_is_null) %4) local_unnamed_addr #0 {
  %6 = alloca i64, align 8
  call void @llvm.lifetime.start.p0(i64 8, ptr nonnull %6) #17
  %7 = icmp eq ptr %1, null
  br i1 %7, label %20, label %8

8:                                                ; preds = %5
  %9 = call ptr @timelib_fetch_timezone_offset(ptr noundef nonnull %1, i64 noundef %0, ptr noundef nonnull %6)
  %.not = icmp eq ptr %9, null
  br i1 %.not, label %20, label %10

10:                                               ; preds = %8
  %.not16 = icmp eq ptr %2, null
  br i1 %.not16, label %13, label %11

11:                                               ; preds = %10
  %12 = load i32, ptr %9, align 4, !tbaa !36
  store i32 %12, ptr %2, align 4, !tbaa !73
  br label %13

13:                                               ; preds = %11, %10
  %.not17 = icmp eq ptr %4, null
  br i1 %.not17, label %17, label %14

14:                                               ; preds = %13
  %15 = getelementptr inbounds nuw i8, ptr %9, i64 4
  %16 = load i32, ptr %15, align 4, !tbaa !38
  store i32 %16, ptr %4, align 4, !tbaa !73
  br label %17

17:                                               ; preds = %14, %13
  %.not18 = icmp eq ptr %3, null
  br i1 %.not18, label %20, label %18

18:                                               ; preds = %17
  %19 = load i64, ptr %6, align 8, !tbaa !83
  store i64 %19, ptr %3, align 8, !tbaa !83
  br label %20

20:                                               ; preds = %8, %17, %18, %5
  %.0 = phi i32 [ 0, %5 ], [ 1, %18 ], [ 1, %17 ], [ 0, %8 ]
  call void @llvm.lifetime.end.p0(i64 8, ptr nonnull %6) #17
  ret i32 %.0
}